
build/msp.elf:     file format elf32-msp430


Disassembly of section __reset_vector:

0000fffe <__msp430_resetvec_hook>:
__msp430_resetvec_hook():
    fffe:	7e 41       	interrupt service routine at 0x417e

Disassembly of section .upper.data:

00010000 <__high_dataend-0x2>:
   10000:	01 00       	mova	@r0,	r1	;

Disassembly of section .text:

0000417e <__crt0_start>:
__crt0_start():
    417e:	81 00 00 2c 	mova	#11264,	r1	;0x02c00

00004182 <__crt0_call_main>:
__crt0_call_main():
    4182:	0c 43       	clr	r12		;

00004184 <.Loc.254.1>:
    4184:	b0 13 ee 41 	calla	#16878		;0x041ee

00004188 <swi120>:
swi120():
/Users/nilsholscher/workspaces/msp430_template/src/main.c:2
    4188:	0d 43       	clr	r13		;

0000418a <.LBB0_1>:
/Users/nilsholscher/workspaces/msp430_template/src/main.c:6
    418a:	3d 90 78 00 	cmp	#120,	r13	;#0x0078
    418e:	0a 2c       	jc	$+22     	;abs 0x41a4
    4190:	0e 4d       	mov	r13,	r14	;
    4192:	0e 5e       	rla	r14		;
    4194:	10 4e 00 40 	br	16384(r14)		;

00004198 <.LBB0_3>:
    4198:	1c 53       	inc	r12		;

0000419a <.LBB0_4>:
/Users/nilsholscher/workspaces/msp430_template/src/main.c:5
    419a:	1d 53       	inc	r13		;

0000419c <.Loc.5.1>:
    419c:	3d 90 78 00 	cmp	#120,	r13	;#0x0078
    41a0:	f4 23       	jnz	$-22     	;abs 0x418a
    41a2:	02 3c       	jmp	$+6      	;abs 0x41a8

000041a4 <.LBB0_5>:
/Users/nilsholscher/workspaces/msp430_template/src/main.c:127
    41a4:	3c 53       	add	#-1,	r12	;r3 As==11
    41a6:	f9 3f       	jmp	$-12     	;abs 0x419a

000041a8 <.LBB0_6>:
/Users/nilsholscher/workspaces/msp430_template/src/main.c:130
    41a8:	30 41       	ret			

000041aa <swi50>:
swi50():
/Users/nilsholscher/workspaces/msp430_template/src/main.c:135
    41aa:	0d 43       	clr	r13		;

000041ac <.LBB1_1>:
/Users/nilsholscher/workspaces/msp430_template/src/main.c:139
    41ac:	3d 90 3c 00 	cmp	#60,	r13	;#0x003c
    41b0:	0a 2c       	jc	$+22     	;abs 0x41c6
    41b2:	0e 4d       	mov	r13,	r14	;
    41b4:	0e 5e       	rla	r14		;
    41b6:	10 4e f0 40 	br	16624(r14)		;

000041ba <.LBB1_3>:
    41ba:	1c 53       	inc	r12		;

000041bc <.LBB1_4>:
/Users/nilsholscher/workspaces/msp430_template/src/main.c:138
    41bc:	1d 53       	inc	r13		;

000041be <.Loc.138.1>:
    41be:	3d 90 32 00 	cmp	#50,	r13	;#0x0032
    41c2:	f4 23       	jnz	$-22     	;abs 0x41ac
    41c4:	02 3c       	jmp	$+6      	;abs 0x41ca

000041c6 <.LBB1_5>:
/Users/nilsholscher/workspaces/msp430_template/src/main.c:200
    41c6:	3c 53       	add	#-1,	r12	;r3 As==11
    41c8:	f9 3f       	jmp	$-12     	;abs 0x41bc

000041ca <.LBB1_6>:
/Users/nilsholscher/workspaces/msp430_template/src/main.c:203
    41ca:	30 41       	ret			

000041cc <swi10>:
swi10():
/Users/nilsholscher/workspaces/msp430_template/src/main.c:208
    41cc:	0d 43       	clr	r13		;

000041ce <.LBB2_1>:
/Users/nilsholscher/workspaces/msp430_template/src/main.c:212
    41ce:	3d 90 0a 00 	cmp	#10,	r13	;#0x000a
    41d2:	0a 2c       	jc	$+22     	;abs 0x41e8
    41d4:	0e 4d       	mov	r13,	r14	;
    41d6:	0e 5e       	rla	r14		;
    41d8:	10 4e 68 41 	br	16744(r14)		;

000041dc <.LBB2_3>:
    41dc:	1c 53       	inc	r12		;

000041de <.LBB2_4>:
/Users/nilsholscher/workspaces/msp430_template/src/main.c:211
    41de:	1d 53       	inc	r13		;

000041e0 <.Loc.211.1>:
    41e0:	3d 90 0a 00 	cmp	#10,	r13	;#0x000a
    41e4:	f4 23       	jnz	$-22     	;abs 0x41ce
    41e6:	02 3c       	jmp	$+6      	;abs 0x41ec

000041e8 <.LBB2_5>:
/Users/nilsholscher/workspaces/msp430_template/src/main.c:223
    41e8:	3c 53       	add	#-1,	r12	;r3 As==11
    41ea:	f9 3f       	jmp	$-12     	;abs 0x41de

000041ec <.LBB2_6>:
/Users/nilsholscher/workspaces/msp430_template/src/main.c:226
    41ec:	30 41       	ret			

000041ee <main>:
main():
/Users/nilsholscher/workspaces/msp430_template/src/main.c:230
    41ee:	21 83       	decd	r1		;

000041f0 <.Loc.231.1>:
/Users/nilsholscher/workspaces/msp430_template/src/main.c:231
    41f0:	81 43 00 00 	mov	#0,	0(r1)	;r3 As==00

000041f4 <.Loc.233.1>:
/Users/nilsholscher/workspaces/msp430_template/src/main.c:233
    41f4:	2c 41       	mov	@r1,	r12	;

000041f6 <.Loc.233.1>:
    41f6:	b0 12 cc 41 	call	#16844		;#0x41cc

000041fa <.Loc.233.1>:
    41fa:	81 4c 00 00 	mov	r12,	0(r1)	;

000041fe <.Loc.234.1>:
/Users/nilsholscher/workspaces/msp430_template/src/main.c:234
    41fe:	2c 41       	mov	@r1,	r12	;

00004200 <.Loc.234.1>:
    4200:	b0 12 aa 41 	call	#16810		;#0x41aa

00004204 <.Loc.234.1>:
    4204:	81 4c 00 00 	mov	r12,	0(r1)	;

00004208 <.Loc.235.1>:
/Users/nilsholscher/workspaces/msp430_template/src/main.c:235
    4208:	2c 41       	mov	@r1,	r12	;

0000420a <.Loc.235.1>:
    420a:	b0 12 88 41 	call	#16776		;#0x4188

0000420e <.Loc.235.1>:
    420e:	81 4c 00 00 	mov	r12,	0(r1)	;

00004212 <.Loc.239.1>:
/Users/nilsholscher/workspaces/msp430_template/src/main.c:239
    4212:	2c 41       	mov	@r1,	r12	;

00004214 <.Loc.239.1>:
    4214:	21 53       	incd	r1		;
    4216:	30 41       	ret			

Disassembly of section .MSP430.attributes:

00000000 <.MSP430.attributes>:
   0:	41 16       	popm.a	#5,	r5	;20-bit words
   2:	00 00       	beq			
   4:	00 6d       	addc	r13,	r0	;
   6:	