	.file	"llvm-link"
	.file	1 "/Users/nilsholscher/workspaces/msp430_template" "src/main.c"
	.text
	.globl	main                            ; -- Begin function main
	.p2align	1
	.type	main,@function
main:                                   ; @main
.Lfunc_begin0:
	.cfi_sections .debug_frame
	.cfi_startproc
; %bb.0:                                ; %entry
	.loc	1 61 4 prologue_end             ; src/main.c:61:4
	call	#InitSeed
	.loc	1 67 4                          ; src/main.c:67:4
	mov	#Array, r12
	call	#Test
	.loc	1 69 4                          ; src/main.c:69:4
	mov	#1, r12
	ret
.Ltmp0:
.Lfunc_end0:
	.size	main, .Lfunc_end0-main
	.cfi_endproc
                                        ; -- End function
	.globl	InitSeed                        ; -- Begin function InitSeed
	.p2align	1
	.type	InitSeed,@function
InitSeed:                               ; @InitSeed
.Lfunc_begin1:
	.cfi_startproc
; %bb.0:                                ; %entry
	.loc	1 152 9 prologue_end            ; src/main.c:152:9
	clr	&Seed
	.loc	1 154 4                         ; src/main.c:154:4
	clr	r12
	ret
.Ltmp1:
.Lfunc_end1:
	.size	InitSeed, .Lfunc_end1-InitSeed
	.cfi_endproc
                                        ; -- End function
	.globl	Test                            ; -- Begin function Test
	.p2align	1
	.type	Test,@function
Test:                                   ; @Test
.Lfunc_begin2:
	.loc	1 79 0                          ; src/main.c:79:0
	.cfi_startproc
; %bb.0:                                ; %entry
	;DEBUG_VALUE: Test:Array <- $r12
	push	r10
	.cfi_def_cfa_offset 4
	.cfi_offset r10, -4
	mov	r12, r10
.Ltmp2:
	;DEBUG_VALUE: Test:Array <- $r10
	.loc	1 87 4 prologue_end             ; src/main.c:87:4
	call	#Initialize
.Ltmp3:
	;DEBUG_VALUE: Test:StartTime <- 1000
	.loc	1 91 4                          ; src/main.c:91:4
	mov	r10, r12
	call	#Sum
.Ltmp4:
	;DEBUG_VALUE: Test:StopTime <- 1500
	;DEBUG_VALUE: Test:TotalTime <- undef
	.loc	1 111 4                         ; src/main.c:111:4
	clr	r12
	.loc	1 111 4 epilogue_begin is_stmt 0 ; src/main.c:111:4
	pop	r10
.Ltmp5:
	.cfi_def_cfa_offset 2
	.cfi_restore r10
	ret
.Ltmp6:
.Lfunc_end2:
	.size	Test, .Lfunc_end2-Test
	.cfi_endproc
                                        ; -- End function
	.globl	Initialize                      ; -- Begin function Initialize
	.p2align	1
	.type	Initialize,@function
Initialize:                             ; @Initialize
.Lfunc_begin3:
	.loc	1 123 0 is_stmt 1               ; src/main.c:123:0
	.cfi_startproc
; %bb.0:                                ; %entry
	;DEBUG_VALUE: Initialize:Array <- $r12
	push	r7
	.cfi_def_cfa_offset 4
	push	r8
	.cfi_def_cfa_offset 6
	push	r9
	.cfi_def_cfa_offset 8
	push	r10
	.cfi_def_cfa_offset 10
	.cfi_offset r7, -4
	.cfi_offset r8, -6
	.cfi_offset r9, -8
	.cfi_offset r10, -10
	.loc	1 123 0 prologue_end            ; src/main.c:123:0
	mov	r12, r10
.Ltmp7:
	;DEBUG_VALUE: Initialize:Array <- $r10
	clr	r9
.Ltmp8:
	;DEBUG_VALUE: Initialize:OuterIndex <- 0
.LBB3_1:                                ; %for.body
                                        ; =>This Loop Header: Depth=1
                                        ;     Child Loop BB3_2 Depth 2
	;DEBUG_VALUE: Initialize:OuterIndex <- $r9
	;DEBUG_VALUE: Initialize:InnerIndex <- 0
	clr	r8
.Ltmp9:
.LBB3_2:                                ; %for.body3
                                        ;   Parent Loop BB3_1 Depth=1
                                        ; =>  This Inner Loop Header: Depth=2
	;DEBUG_VALUE: Initialize:OuterIndex <- $r9
	;DEBUG_VALUE: Initialize:InnerIndex <- [DW_OP_consts 2, DW_OP_div, DW_OP_stack_value] $r8
	.loc	1 134 40                        ; src/main.c:134:40
	mov	r10, r7
	add	r8, r7
	.loc	1 134 42 is_stmt 0              ; src/main.c:134:42
	call	#RandomInteger
	.loc	1 134 40                        ; src/main.c:134:40
	mov	r12, 0(r7)
.Ltmp10:
	;DEBUG_VALUE: Initialize:InnerIndex <- [DW_OP_consts 2, DW_OP_div, DW_OP_consts 1, DW_OP_plus, DW_OP_stack_value] $r8
	.loc	1 132 39 is_stmt 1              ; src/main.c:132:39
	incd	r8
.Ltmp11:
	.loc	1 132 7 is_stmt 0               ; src/main.c:132:7
	cmp	#20, r8
	jne	.LBB3_2
.Ltmp12:
; %bb.3:                                ; %for.inc5
                                        ;   in Loop: Header=BB3_1 Depth=1
	;DEBUG_VALUE: Initialize:OuterIndex <- $r9
	.loc	1 130 4 is_stmt 1               ; src/main.c:130:4
	add	#20, r10
.Ltmp13:
	.loc	1 130 57 is_stmt 0              ; src/main.c:130:57
	inc	r9
.Ltmp14:
	;DEBUG_VALUE: Initialize:OuterIndex <- $r9
	.loc	1 130 4                         ; src/main.c:130:4
	cmp	#10, r9
	jne	.LBB3_1
.Ltmp15:
; %bb.4:                                ; %for.end7
	;DEBUG_VALUE: Initialize:OuterIndex <- $r9
	.loc	1 138 4 is_stmt 1               ; src/main.c:138:4
	clr	r12
	.loc	1 138 4 epilogue_begin is_stmt 0 ; src/main.c:138:4
	pop	r10
	.cfi_def_cfa_offset 8
	pop	r9
.Ltmp16:
	.cfi_def_cfa_offset 6
	pop	r8
	.cfi_def_cfa_offset 4
	pop	r7
	.cfi_def_cfa_offset 2
	.cfi_restore r7
	.cfi_restore r8
	.cfi_restore r9
	.cfi_restore r10
	ret
.Ltmp17:
.Lfunc_end3:
	.size	Initialize, .Lfunc_end3-Initialize
	.cfi_endproc
                                        ; -- End function
	.globl	Sum                             ; -- Begin function Sum
	.p2align	1
	.type	Sum,@function
Sum:                                    ; @Sum
.Lfunc_begin4:
	.loc	1 162 0 is_stmt 1               ; src/main.c:162:0
	.cfi_startproc
; %bb.0:                                ; %entry
	;DEBUG_VALUE: Sum:Array <- $r12
	push	r8
	.cfi_def_cfa_offset 4
	push	r9
	.cfi_def_cfa_offset 6
	push	r10
	.cfi_def_cfa_offset 8
	.cfi_offset r8, -4
	.cfi_offset r9, -6
	.cfi_offset r10, -8
	.loc	1 162 0 prologue_end            ; src/main.c:162:0
	clr	r13
.Ltmp18:
	;DEBUG_VALUE: Sum:Ptotal <- 0
	;DEBUG_VALUE: Sum:Ntotal <- 0
	;DEBUG_VALUE: Sum:Pcnt <- 0
	;DEBUG_VALUE: Sum:Ncnt <- 0
	;DEBUG_VALUE: Sum:Outer <- 0
	clr	r11
	clr	r14
	clr	r15
	clr	r10
	jmp	.LBB4_2
.Ltmp19:
.LBB4_1:                                ; %for.inc13
                                        ;   in Loop: Header=BB4_2 Depth=1
	;DEBUG_VALUE: Sum:Outer <- $r11
	;DEBUG_VALUE: Sum:Ncnt <- $r13
	;DEBUG_VALUE: Sum:Pcnt <- $r10
	;DEBUG_VALUE: Sum:Ntotal <- $r15
	;DEBUG_VALUE: Sum:Ptotal <- $r14
	;DEBUG_VALUE: Sum:Ptotal <- $r14
	;DEBUG_VALUE: Sum:Ntotal <- $r15
	;DEBUG_VALUE: Sum:Pcnt <- $r10
	;DEBUG_VALUE: Sum:Ncnt <- $r13
	.loc	1 179 3                         ; src/main.c:179:3
	add	#20, r12
.Ltmp20:
	.loc	1 179 41 is_stmt 0              ; src/main.c:179:41
	inc	r11
.Ltmp21:
	;DEBUG_VALUE: Sum:Outer <- $r11
	.loc	1 179 3                         ; src/main.c:179:3
	cmp	#10, r11
	jeq	.LBB4_7
.Ltmp22:
.LBB4_2:                                ; %for.body
                                        ; =>This Loop Header: Depth=1
                                        ;     Child Loop BB4_5 Depth 2
	;DEBUG_VALUE: Sum:Ptotal <- $r14
	;DEBUG_VALUE: Sum:Ntotal <- $r15
	;DEBUG_VALUE: Sum:Pcnt <- $r10
	;DEBUG_VALUE: Sum:Ncnt <- $r13
	;DEBUG_VALUE: Sum:Outer <- $r11
	;DEBUG_VALUE: Sum:Inner <- 0
	.loc	1 0 3                           ; src/main.c:0:3
	clr	r9
	jmp	.LBB4_5
.Ltmp23:
.LBB4_3:                                ; %if.else
                                        ;   in Loop: Header=BB4_5 Depth=2
	;DEBUG_VALUE: Sum:Inner <- [DW_OP_consts 2, DW_OP_div, DW_OP_stack_value] $r9
	;DEBUG_VALUE: Sum:Outer <- $r11
	;DEBUG_VALUE: Sum:Ncnt <- $r13
	;DEBUG_VALUE: Sum:Pcnt <- $r10
	;DEBUG_VALUE: Sum:Ntotal <- $r15
	;DEBUG_VALUE: Sum:Ptotal <- $r14
	.loc	1 201 11 is_stmt 1              ; src/main.c:201:11
	add	0(r8), r15
.Ltmp24:
	;DEBUG_VALUE: Sum:Ntotal <- $r15
	.loc	1 203 8                         ; src/main.c:203:8
	inc	r13
.Ltmp25:
	;DEBUG_VALUE: Sum:Ncnt <- $r13
.LBB4_4:                                ; %for.inc
                                        ;   in Loop: Header=BB4_5 Depth=2
	;DEBUG_VALUE: Sum:Inner <- [DW_OP_consts 2, DW_OP_div, DW_OP_stack_value] $r9
	;DEBUG_VALUE: Sum:Outer <- $r11
	;DEBUG_VALUE: Sum:Ncnt <- $r13
	;DEBUG_VALUE: Sum:Pcnt <- $r10
	;DEBUG_VALUE: Sum:Ntotal <- $r15
	;DEBUG_VALUE: Sum:Ptotal <- $r14
	;DEBUG_VALUE: Sum:Ptotal <- $r14
	;DEBUG_VALUE: Sum:Ntotal <- $r15
	;DEBUG_VALUE: Sum:Pcnt <- $r10
	;DEBUG_VALUE: Sum:Ncnt <- $r13
	;DEBUG_VALUE: Sum:Inner <- [DW_OP_consts 2, DW_OP_div, DW_OP_consts 1, DW_OP_plus, DW_OP_stack_value] $r9
	.loc	1 181 27                        ; src/main.c:181:27
	incd	r9
.Ltmp26:
	.loc	1 181 5 is_stmt 0               ; src/main.c:181:5
	cmp	#20, r9
	jeq	.LBB4_1
.Ltmp27:
.LBB4_5:                                ; %for.body3
                                        ;   Parent Loop BB4_2 Depth=1
                                        ; =>  This Inner Loop Header: Depth=2
	;DEBUG_VALUE: Sum:Outer <- $r11
	;DEBUG_VALUE: Sum:Ncnt <- $r13
	;DEBUG_VALUE: Sum:Pcnt <- $r10
	;DEBUG_VALUE: Sum:Ntotal <- $r15
	;DEBUG_VALUE: Sum:Ptotal <- $r14
	;DEBUG_VALUE: Sum:Ptotal <- $r14
	;DEBUG_VALUE: Sum:Ntotal <- $r15
	;DEBUG_VALUE: Sum:Pcnt <- $r10
	;DEBUG_VALUE: Sum:Ncnt <- $r13
	;DEBUG_VALUE: Sum:Inner <- [DW_OP_consts 2, DW_OP_div, DW_OP_stack_value] $r9
	.loc	1 189 6 is_stmt 1               ; src/main.c:189:6
	mov	r12, r8
	add	r9, r8
	.loc	1 189 26 is_stmt 0              ; src/main.c:189:26
	tst	0(r8)
	jge	.LBB4_3
.Ltmp28:
; %bb.6:                                ; %if.then
                                        ;   in Loop: Header=BB4_5 Depth=2
	;DEBUG_VALUE: Sum:Inner <- [DW_OP_consts 2, DW_OP_div, DW_OP_stack_value] $r9
	;DEBUG_VALUE: Sum:Outer <- $r11
	;DEBUG_VALUE: Sum:Ncnt <- $r13
	;DEBUG_VALUE: Sum:Pcnt <- $r10
	;DEBUG_VALUE: Sum:Ntotal <- $r15
	;DEBUG_VALUE: Sum:Ptotal <- $r14
	.loc	1 193 11 is_stmt 1              ; src/main.c:193:11
	add	0(r8), r14
.Ltmp29:
	;DEBUG_VALUE: Sum:Ptotal <- $r14
	.loc	1 195 8                         ; src/main.c:195:8
	inc	r10
.Ltmp30:
	;DEBUG_VALUE: Sum:Pcnt <- $r10
	.loc	1 197 2                         ; src/main.c:197:2
	jmp	.LBB4_4
.Ltmp31:
.LBB4_7:                                ; %for.end15
	;DEBUG_VALUE: Sum:Outer <- $r11
	;DEBUG_VALUE: Sum:Ncnt <- $r13
	;DEBUG_VALUE: Sum:Pcnt <- $r10
	;DEBUG_VALUE: Sum:Ntotal <- $r15
	;DEBUG_VALUE: Sum:Ptotal <- $r14
	.loc	1 211 10                        ; src/main.c:211:10
	mov	r10, &Poscnt
	.loc	1 209 12                        ; src/main.c:209:12
	mov	r14, &Postotal
	.loc	1 213 12                        ; src/main.c:213:12
	mov	r15, &Negtotal
	.loc	1 215 10                        ; src/main.c:215:10
	mov	r13, &Negcnt
	.loc	1 217 1 epilogue_begin          ; src/main.c:217:1
	pop	r10
.Ltmp32:
	.cfi_def_cfa_offset 6
	pop	r9
	.cfi_def_cfa_offset 4
	pop	r8
	.cfi_def_cfa_offset 2
	.cfi_restore r8
	.cfi_restore r9
	.cfi_restore r10
	ret
.Ltmp33:
.Lfunc_end4:
	.size	Sum, .Lfunc_end4-Sum
	.cfi_endproc
                                        ; -- End function
	.globl	RandomInteger                   ; -- Begin function RandomInteger
	.p2align	1
	.type	RandomInteger,@function
RandomInteger:                          ; @RandomInteger
.Lfunc_begin5:
	.cfi_startproc
; %bb.0:                                ; %entry
	.loc	1 253 13 prologue_end           ; src/main.c:253:13
	mov	&Seed, r12
	.loc	1 253 18 is_stmt 0              ; src/main.c:253:18
	mov	#133, r13
	call	#__mspabi_mpyi
	.loc	1 253 25                        ; src/main.c:253:25
	add	#81, r12
	.loc	1 253 31                        ; src/main.c:253:31
	mov	#8095, r13
	call	#__mspabi_remi
	.loc	1 253 9                         ; src/main.c:253:9
	mov	r12, &Seed
	.loc	1 255 4 is_stmt 1               ; src/main.c:255:4
	ret
.Ltmp34:
.Lfunc_end5:
	.size	RandomInteger, .Lfunc_end5-RandomInteger
	.cfi_endproc
                                        ; -- End function
	.type	Array,@object                   ; @Array
	.section	.bss,"aw",@nobits
	.globl	Array
	.p2align	1, 0x0
Array:
	.zero	200
	.size	Array, 200

	.type	Seed,@object                    ; @Seed
	.globl	Seed
	.p2align	1, 0x0
Seed:
	.short	0                               ; 0x0
	.size	Seed, 2

	.type	Postotal,@object                ; @Postotal
	.globl	Postotal
	.p2align	1, 0x0
Postotal:
	.short	0                               ; 0x0
	.size	Postotal, 2

	.type	Poscnt,@object                  ; @Poscnt
	.globl	Poscnt
	.p2align	1, 0x0
Poscnt:
	.short	0                               ; 0x0
	.size	Poscnt, 2

	.type	Negtotal,@object                ; @Negtotal
	.globl	Negtotal
	.p2align	1, 0x0
Negtotal:
	.short	0                               ; 0x0
	.size	Negtotal, 2

	.type	Negcnt,@object                  ; @Negcnt
	.globl	Negcnt
	.p2align	1, 0x0
Negcnt:
	.short	0                               ; 0x0
	.size	Negcnt, 2

	.section	".note.GNU-stack","",@progbits